target datalayout = "e-m:e-p270:32:32-p271:32:32-p272:64:64-i64:64-i128:128-f80:128-n8:16:32:64-S128"
target triple = "x86_64-pc-linux-gnu"

%"class.icu_77::TimeZoneTransition" = type { %"class.icu_77::UObject", double, ptr, ptr }
%"class.icu_77::UObject" = type { ptr }
%"class.std::type_info" = type { ptr, ptr }

; Function Attrs: mustprogress nounwind uwtable
define linkonce_odr noundef ptr @_ZNKSt9type_info4nameEv(ptr noundef nonnull align 8 dereferenceable(16) %0) #0 comdat align 2 {
  %2 = alloca ptr, align 8
  store ptr %0, ptr %2, align 8, !tbaa !21
  %3 = load ptr, ptr %2, align 8
  %4 = getelementptr inbounds nuw %"class.std::type_info", ptr %3, i32 0, i32 1
  %5 = load ptr, ptr %4, align 8, !tbaa !23
  %6 = getelementptr inbounds i8, ptr %5, i64 0
  %7 = load i8, ptr %6, align 1, !tbaa !26
  %8 = sext i8 %7 to i32
  %9 = icmp eq i32 %8, 42
  br i1 %9, label %10, label %14

10:                                               ; preds = %1
  %11 = getelementptr inbounds nuw %"class.std::type_info", ptr %3, i32 0, i32 1
  %12 = load ptr, ptr %11, align 8, !tbaa !23
  %13 = getelementptr inbounds i8, ptr %12, i64 1
  br label %17

14:                                               ; preds = %1
  %15 = getelementptr inbounds nuw %"class.std::type_info", ptr %3, i32 0, i32 1
  %16 = load ptr, ptr %15, align 8, !tbaa !23
  br label %17

17:                                               ; preds = %14, %10
  %18 = phi ptr [ %13, %10 ], [ %16, %14 ]
  ret ptr %18
}

; Function Attrs: inlinehint mustprogress nounwind uwtable
define linkonce_odr noundef zeroext i1 @_ZNKSt9type_infoeqERKS_(ptr noundef nonnull align 8 dereferenceable(16) %0, ptr noundef nonnull align 8 dereferenceable(16) %1) #3 comdat align 2 {
  %3 = alloca i1, align 1
  %4 = alloca ptr, align 8
  %5 = alloca ptr, align 8
  store ptr %0, ptr %4, align 8, !tbaa !21
  store ptr %1, ptr %5, align 8, !tbaa !21
  %6 = load ptr, ptr %4, align 8
  %7 = getelementptr inbounds nuw %"class.std::type_info", ptr %6, i32 0, i32 1
  %8 = load ptr, ptr %7, align 8, !tbaa !23
  %9 = load ptr, ptr %5, align 8, !tbaa !21
  %10 = getelementptr inbounds nuw %"class.std::type_info", ptr %9, i32 0, i32 1
  %11 = load ptr, ptr %10, align 8, !tbaa !23
  %12 = icmp eq ptr %8, %11
  br i1 %12, label %13, label %14

13:                                               ; preds = %2
  store i1 true, ptr %3, align 1
  br label %30

14:                                               ; preds = %2
  %15 = getelementptr inbounds nuw %"class.std::type_info", ptr %6, i32 0, i32 1
  %16 = load ptr, ptr %15, align 8, !tbaa !23
  %17 = getelementptr inbounds i8, ptr %16, i64 0
  %18 = load i8, ptr %17, align 1, !tbaa !26
  %19 = sext i8 %18 to i32
  %20 = icmp ne i32 %19, 42
  br i1 %20, label %21, label %28

21:                                               ; preds = %14
  %22 = getelementptr inbounds nuw %"class.std::type_info", ptr %6, i32 0, i32 1
  %23 = load ptr, ptr %22, align 8, !tbaa !23
  %24 = load ptr, ptr %5, align 8, !tbaa !21
  %25 = call noundef ptr @_ZNKSt9type_info4nameEv(ptr noundef nonnull align 8 dereferenceable(16) %24) #6
  %26 = call i32 @strcmp(ptr noundef %23, ptr noundef %25) #6
  %27 = icmp eq i32 %26, 0
  br label %28

28:                                               ; preds = %21, %14
  %29 = phi i1 [ false, %14 ], [ %27, %21 ]
  store i1 %29, ptr %3, align 1
  br label %30

30:                                               ; preds = %28, %13
  %31 = load i1, ptr %3, align 1
  ret i1 %31
}

; Function Attrs: mustprogress nounwind uwtable
define linkonce_odr noundef zeroext i1 @_ZNKSt9type_infoneERKS_(ptr noundef nonnull align 8 dereferenceable(16) %0, ptr noundef nonnull align 8 dereferenceable(16) %1) #0 comdat align 2 {
  %3 = alloca ptr, align 8
  %4 = alloca ptr, align 8
  store ptr %0, ptr %3, align 8, !tbaa !21
  store ptr %1, ptr %4, align 8, !tbaa !21
  %5 = load ptr, ptr %3, align 8
  %6 = load ptr, ptr %4, align 8, !tbaa !21
  %7 = call noundef zeroext i1 @_ZNKSt9type_infoeqERKS_(ptr noundef nonnull align 8 dereferenceable(16) %5, ptr noundef nonnull align 8 dereferenceable(16) %6) #6
  %8 = xor i1 %7, true
  ret i1 %8
}

; Function Attrs: mustprogress uwtable
define noundef zeroext i1 @_ZNK6icu_7718TimeZoneTransitioneqERKS0_(ptr noundef nonnull align 8 dereferenceable(32) %0, ptr noundef nonnull align 8 dereferenceable(32) %1) #1 align 2 {
  %3 = alloca i1, align 1
  %4 = alloca ptr, align 8
  %5 = alloca ptr, align 8
  store ptr %0, ptr %4, align 8, !tbaa !3
  store ptr %1, ptr %5, align 8, !tbaa !3
  %6 = load ptr, ptr %4, align 8
  %7 = load ptr, ptr %5, align 8, !tbaa !3
  %8 = icmp eq ptr %6, %7
  br i1 %8, label %9, label %10

9:                                                ; preds = %2
  store i1 true, ptr %3, align 1
  br label %90

10:                                               ; preds = %2
  %11 = icmp eq ptr %6, null
  br i1 %11, label %12, label %13

12:                                               ; preds = %10
  call void @__cxa_bad_typeid() #7
  unreachable

13:                                               ; preds = %10
  %14 = load ptr, ptr %6, align 8, !tbaa !12
  %15 = getelementptr inbounds ptr, ptr %14, i64 -1
  %16 = load ptr, ptr %15, align 8
  %17 = load ptr, ptr %5, align 8, !tbaa !3
  %18 = load ptr, ptr %17, align 8, !tbaa !12
  %19 = getelementptr inbounds ptr, ptr %18, i64 -1
  %20 = load ptr, ptr %19, align 8
  %21 = call noundef zeroext i1 @_ZNKSt9type_infoneERKS_(ptr noundef nonnull align 8 dereferenceable(16) %16, ptr noundef nonnull align 8 dereferenceable(16) %20) #6
  br i1 %21, label %22, label %23

22:                                               ; preds = %13
  store i1 false, ptr %3, align 1
  br label %90

23:                                               ; preds = %13
  %24 = getelementptr inbounds nuw %"class.icu_77::TimeZoneTransition", ptr %6, i32 0, i32 1
  %25 = load double, ptr %24, align 8, !tbaa !14
  %26 = load ptr, ptr %5, align 8, !tbaa !3
  %27 = getelementptr inbounds nuw %"class.icu_77::TimeZoneTransition", ptr %26, i32 0, i32 1
  %28 = load double, ptr %27, align 8, !tbaa !14
  %29 = fcmp une double %25, %28
  br i1 %29, label %30, label %31

30:                                               ; preds = %23
  store i1 false, ptr %3, align 1
  br label %90

31:                                               ; preds = %23
  %32 = getelementptr inbounds nuw %"class.icu_77::TimeZoneTransition", ptr %6, i32 0, i32 2
  %33 = load ptr, ptr %32, align 8, !tbaa !17
  %34 = icmp eq ptr %33, null
  br i1 %34, label %35, label %40

35:                                               ; preds = %31
  %36 = load ptr, ptr %5, align 8, !tbaa !3
  %37 = getelementptr inbounds nuw %"class.icu_77::TimeZoneTransition", ptr %36, i32 0, i32 2
  %38 = load ptr, ptr %37, align 8, !tbaa !17
  %39 = icmp eq ptr %38, null
  br i1 %39, label %59, label %40

40:                                               ; preds = %35, %31
  %41 = getelementptr inbounds nuw %"class.icu_77::TimeZoneTransition", ptr %6, i32 0, i32 2
  %42 = load ptr, ptr %41, align 8, !tbaa !17
  %43 = icmp ne ptr %42, null
  br i1 %43, label %44, label %89

44:                                               ; preds = %40
  %45 = load ptr, ptr %5, align 8, !tbaa !3
  %46 = getelementptr inbounds nuw %"class.icu_77::TimeZoneTransition", ptr %45, i32 0, i32 2
  %47 = load ptr, ptr %46, align 8, !tbaa !17
  %48 = icmp ne ptr %47, null
  br i1 %48, label %49, label %89

49:                                               ; preds = %44
  %50 = getelementptr inbounds nuw %"class.icu_77::TimeZoneTransition", ptr %6, i32 0, i32 2
  %51 = load ptr, ptr %50, align 8, !tbaa !17
  %52 = load ptr, ptr %5, align 8, !tbaa !3
  %53 = getelementptr inbounds nuw %"class.icu_77::TimeZoneTransition", ptr %52, i32 0, i32 2
  %54 = load ptr, ptr %53, align 8, !tbaa !17
  %55 = load ptr, ptr %51, align 8, !tbaa !12
  %56 = getelementptr inbounds ptr, ptr %55, i64 4
  %57 = load ptr, ptr %56, align 8
  %58 = call noundef zeroext i1 %57(ptr noundef nonnull align 8 dereferenceable(80) %51, ptr noundef nonnull align 8 dereferenceable(80) %54)
  br i1 %58, label %59, label %89

59:                                               ; preds = %49, %35
  %60 = getelementptr inbounds nuw %"class.icu_77::TimeZoneTransition", ptr %6, i32 0, i32 3
  %61 = load ptr, ptr %60, align 8, !tbaa !18
  %62 = icmp eq ptr %61, null
  br i1 %62, label %63, label %68

63:                                               ; preds = %59
  %64 = load ptr, ptr %5, align 8, !tbaa !3
  %65 = getelementptr inbounds nuw %"class.icu_77::TimeZoneTransition", ptr %64, i32 0, i32 3
  %66 = load ptr, ptr %65, align 8, !tbaa !18
  %67 = icmp eq ptr %66, null
  br i1 %67, label %87, label %68

68:                                               ; preds = %63, %59
  %69 = getelementptr inbounds nuw %"class.icu_77::TimeZoneTransition", ptr %6, i32 0, i32 3
  %70 = load ptr, ptr %69, align 8, !tbaa !18
  %71 = icmp ne ptr %70, null
  br i1 %71, label %72, label %88

72:                                               ; preds = %68
  %73 = load ptr, ptr %5, align 8, !tbaa !3
  %74 = getelementptr inbounds nuw %"class.icu_77::TimeZoneTransition", ptr %73, i32 0, i32 3
  %75 = load ptr, ptr %74, align 8, !tbaa !18
  %76 = icmp ne ptr %75, null
  br i1 %76, label %77, label %88

77:                                               ; preds = %72
  %78 = getelementptr inbounds nuw %"class.icu_77::TimeZoneTransition", ptr %6, i32 0, i32 3
  %79 = load ptr, ptr %78, align 8, !tbaa !18
  %80 = load ptr, ptr %5, align 8, !tbaa !3
  %81 = getelementptr inbounds nuw %"class.icu_77::TimeZoneTransition", ptr %80, i32 0, i32 3
  %82 = load ptr, ptr %81, align 8, !tbaa !18
  %83 = load ptr, ptr %79, align 8, !tbaa !12
  %84 = getelementptr inbounds ptr, ptr %83, i64 4
  %85 = load ptr, ptr %84, align 8
  %86 = call noundef zeroext i1 %85(ptr noundef nonnull align 8 dereferenceable(80) %79, ptr noundef nonnull align 8 dereferenceable(80) %82)
  br i1 %86, label %87, label %88

87:                                               ; preds = %77, %63
  store i1 true, ptr %3, align 1
  br label %90

88:                                               ; preds = %77, %72, %68
  br label %89

89:                                               ; preds = %88, %49, %44, %40
  store i1 false, ptr %3, align 1
  br label %90

90:                                               ; preds = %89, %87, %30, %22, %9
  %91 = load i1, ptr %3, align 1
  ret i1 %91
}