; Function Attrs: mustprogress uwtable
define noundef zeroext i1 @_ZNK6icu_7718TimeZoneTransitioneqERKS0_(ptr noundef nonnull readonly align 8 dereferenceable(32) %0, ptr noundef nonnull readonly align 8 dereferenceable(32) %1) local_unnamed_addr #1 align 2 {
  %3 = icmp eq ptr %0, %1
  br i1 %3, label %_ZNKSt9type_infoneERKS_.exit.thread, label %4

4:                                                ; preds = %2
  %5 = load ptr, ptr %0, align 8, !tbaa !3
  %6 = getelementptr inbounds i8, ptr %5, i64 -8
  %7 = load ptr, ptr %6, align 8
  %8 = load ptr, ptr %1, align 8, !tbaa !3
  %9 = getelementptr inbounds i8, ptr %8, i64 -8
  %10 = load ptr, ptr %9, align 8
  %11 = getelementptr inbounds nuw i8, ptr %7, i64 8
  %12 = load ptr, ptr %11, align 8, !tbaa !15
  %13 = getelementptr inbounds nuw i8, ptr %10, i64 8
  %14 = load ptr, ptr %13, align 8, !tbaa !15
  %15 = icmp eq ptr %12, %14
  br i1 %15, label %_ZNKSt9type_infoneERKS_.exit.thread26, label %16

16:                                               ; preds = %4
  %17 = load i8, ptr %12, align 1, !tbaa !18
  %.not.i.i = icmp eq i8 %17, 42
  br i1 %.not.i.i, label %_ZNKSt9type_infoneERKS_.exit.thread, label %_ZNKSt9type_infoneERKS_.exit

_ZNKSt9type_infoneERKS_.exit:                     ; preds = %16
  %18 = load i8, ptr %14, align 1, !tbaa !18
  %19 = icmp eq i8 %18, 42
  %.idx.i.i.i = zext i1 %19 to i64
  %20 = getelementptr inbounds nuw i8, ptr %14, i64 %.idx.i.i.i
  %21 = tail call i32 @strcmp(ptr noundef nonnull dereferenceable(1) %12, ptr noundef nonnull dereferenceable(1) %20) #8
  %.not = icmp eq i32 %21, 0
  br i1 %.not, label %_ZNKSt9type_infoneERKS_.exit.thread26, label %_ZNKSt9type_infoneERKS_.exit.thread

_ZNKSt9type_infoneERKS_.exit.thread26:            ; preds = %4, %_ZNKSt9type_infoneERKS_.exit
  %22 = getelementptr inbounds nuw i8, ptr %0, i64 8
  %23 = load double, ptr %22, align 8, !tbaa !6
  %24 = getelementptr inbounds nuw i8, ptr %1, i64 8
  %25 = load double, ptr %24, align 8, !tbaa !6
  %26 = fcmp une double %23, %25
  br i1 %26, label %_ZNKSt9type_infoneERKS_.exit.thread, label %27

27:                                               ; preds = %_ZNKSt9type_infoneERKS_.exit.thread26
  %28 = getelementptr inbounds nuw i8, ptr %0, i64 16
  %29 = load ptr, ptr %28, align 8, !tbaa !13
  %30 = icmp eq ptr %29, null
  %31 = getelementptr inbounds nuw i8, ptr %1, i64 16
  %32 = load ptr, ptr %31, align 8
  %33 = icmp eq ptr %32, null
  %or.cond = select i1 %30, i1 %33, i1 false
  br i1 %or.cond, label %40, label %34

34:                                               ; preds = %27
  %brmerge = select i1 %30, i1 true, i1 %33
  br i1 %brmerge, label %53, label %35

35:                                               ; preds = %34
  %36 = load ptr, ptr %29, align 8, !tbaa !3
  %37 = getelementptr inbounds nuw i8, ptr %36, i64 32
  %38 = load ptr, ptr %37, align 8
  %39 = tail call noundef zeroext i1 %38(ptr noundef nonnull align 8 dereferenceable(80) %29, ptr noundef nonnull align 8 dereferenceable(80) %32)
  br i1 %39, label %40, label %53

40:                                               ; preds = %27, %35
  %41 = getelementptr inbounds nuw i8, ptr %0, i64 24
  %42 = load ptr, ptr %41, align 8, !tbaa !14
  %43 = icmp eq ptr %42, null
  %44 = getelementptr inbounds nuw i8, ptr %1, i64 24
  %45 = load ptr, ptr %44, align 8
  %46 = icmp eq ptr %45, null
  %or.cond24 = select i1 %43, i1 %46, i1 false
  br i1 %or.cond24, label %_ZNKSt9type_infoneERKS_.exit.thread, label %47

47:                                               ; preds = %40
  %brmerge28 = select i1 %43, i1 true, i1 %46
  br i1 %brmerge28, label %53, label %48

48:                                               ; preds = %47
  %49 = load ptr, ptr %42, align 8, !tbaa !3
  %50 = getelementptr inbounds nuw i8, ptr %49, i64 32
  %51 = load ptr, ptr %50, align 8
  %52 = tail call noundef zeroext i1 %51(ptr noundef nonnull align 8 dereferenceable(80) %42, ptr noundef nonnull align 8 dereferenceable(80) %45)
  br i1 %52, label %_ZNKSt9type_infoneERKS_.exit.thread, label %53

53:                                               ; preds = %47, %34, %48, %35
  br label %_ZNKSt9type_infoneERKS_.exit.thread

_ZNKSt9type_infoneERKS_.exit.thread:              ; preds = %16, %48, %40, %_ZNKSt9type_infoneERKS_.exit.thread26, %_ZNKSt9type_infoneERKS_.exit, %2, %53
  %.0 = phi i1 [ false, %53 ], [ true, %2 ], [ false, %_ZNKSt9type_infoneERKS_.exit ], [ false, %_ZNKSt9type_infoneERKS_.exit.thread26 ], [ true, %40 ], [ true, %48 ], [ false, %16 ]
  ret i1 %.0
}